; Function Attrs: mustprogress uwtable
define void @_ZN19OpenColorIO_v2_5dev9FileRules24setDefaultRuleColorSpaceEPKc(ptr noundef nonnull readonly align 8 captures(none) dereferenceable(16) %0, ptr noundef %1) local_unnamed_addr #0 align 2 {
  %3 = getelementptr inbounds nuw i8, ptr %0, i64 8
  %4 = load ptr, ptr %3, align 8, !tbaa !6
  %5 = getelementptr inbounds nuw i8, ptr %4, i64 8
  %6 = load ptr, ptr %5, align 8, !tbaa !35
  %7 = getelementptr inbounds i8, ptr %6, i64 -16
  %8 = load ptr, ptr %7, align 8, !tbaa !36
  tail call void @_ZN19OpenColorIO_v2_5dev8FileRule13setColorSpaceEPKc(ptr noundef nonnull align 8 dereferenceable(212) %8, ptr noundef %1)
  ret void
}